; Function Attrs: mustprogress uwtable
define noalias noundef nonnull ptr @lean_chmod(ptr noundef %0, i32 noundef %1, ptr noundef readnone captures(none) %2) local_unnamed_addr #0 {
  %4 = getelementptr inbounds nuw i8, ptr %0, i64 32
  %5 = tail call i32 @chmod(ptr noundef nonnull %4, i32 noundef %1) #27
  %.not = icmp eq i32 %5, 0
  br i1 %.not, label %6, label %10

6:                                                ; preds = %3
  tail call void @lean_inc_heartbeat()
  %7 = tail call noalias ptr @mi_malloc_small(i64 noundef 24) #27
  %8 = icmp eq ptr %7, null
  br i1 %8, label %9, label %_ZN4lean15io_result_mk_okEP11lean_object.exit

9:                                                ; preds = %6
  tail call void @lean_internal_panic_out_of_memory() #28
  unreachable

10:                                               ; preds = %3
  %11 = tail call ptr @__errno_location() #30
  %12 = load i32, ptr %11, align 4, !tbaa !44
  %13 = tail call noundef ptr @lean_decode_io_error(i32 noundef %12, ptr noundef nonnull %0)
  tail call void @lean_inc_heartbeat()
  %14 = tail call noalias ptr @mi_malloc_small(i64 noundef 24) #27
  %15 = icmp eq ptr %14, null
  br i1 %15, label %16, label %_ZN4lean15io_result_mk_okEP11lean_object.exit

16:                                               ; preds = %10
  tail call void @lean_internal_panic_out_of_memory() #28
  unreachable

_ZN4lean15io_result_mk_okEP11lean_object.exit:    ; preds = %10, %6
  %.sink9 = phi ptr [ %7, %6 ], [ %14, %10 ]
  %.sink6 = phi i32 [ 131096, %6 ], [ 16908312, %10 ]
  %.sink = phi ptr [ inttoptr (i64 1 to ptr), %6 ], [ %13, %10 ]
  %17 = getelementptr inbounds nuw i8, ptr %.sink9, i64 4
  store i32 1, ptr %.sink9, align 4, !tbaa !7
  store i32 %.sink6, ptr %17, align 4
  %18 = getelementptr inbounds nuw i8, ptr %.sink9, i64 8
  store ptr %.sink, ptr %18, align 8, !tbaa !3
  %19 = getelementptr inbounds nuw i8, ptr %.sink9, i64 16
  store ptr inttoptr (i64 1 to ptr), ptr %19, align 8, !tbaa !3
  ret ptr %.sink9
}